target datalayout = "e-m:e-p270:32:32-p271:32:32-p272:64:64-i64:64-i128:128-f80:128-n8:16:32:64-S128"
target triple = "x86_64-pc-linux-gnu"

%struct.asn1_string_st = type { i32, i32, ptr, i64 }
%struct.v3_ext_ctx = type { i32, ptr, ptr, ptr, ptr, ptr, ptr, ptr }
%struct.x509_st = type { %struct.x509_cinf_st, %struct.X509_algor_st, %struct.asn1_string_st, %struct.x509_sig_info_st, %struct.CRYPTO_REF_COUNT, %struct.crypto_ex_data_st, i64, i64, i32, i32, i32, i32, ptr, ptr, ptr, ptr, ptr, ptr, ptr, ptr, [20 x i8], ptr, ptr, i32, ptr, ptr, ptr }
%struct.x509_cinf_st = type { ptr, %struct.asn1_string_st, %struct.X509_algor_st, ptr, %struct.X509_val_st, ptr, ptr, ptr, ptr, ptr, %struct.ASN1_ENCODING_st }
%struct.X509_val_st = type { ptr, ptr }
%struct.ASN1_ENCODING_st = type { ptr, i64, i32 }
%struct.X509_algor_st = type { ptr, ptr }
%struct.x509_sig_info_st = type { i32, i32, i32, i32 }
%struct.CRYPTO_REF_COUNT = type { i32 }
%struct.crypto_ex_data_st = type { ptr, ptr }
%struct.X509_req_st = type { %struct.X509_req_info_st, %struct.X509_algor_st, ptr, %struct.CRYPTO_REF_COUNT, ptr, ptr, ptr, ptr }
%struct.X509_req_info_st = type { %struct.ASN1_ENCODING_st, ptr, ptr, ptr, ptr }

@.str = private unnamed_addr constant [33 x i8] c"../openssl/crypto/x509/v3_skid.c\00", align 1
@__func__.s2i_ASN1_OCTET_STRING = private unnamed_addr constant [22 x i8] c"s2i_ASN1_OCTET_STRING\00", align 1
@.str.2 = private unnamed_addr constant [5 x i8] c"none\00", align 1
@.str.3 = private unnamed_addr constant [5 x i8] c"hash\00", align 1
@__func__.s2i_skey_id = private unnamed_addr constant [12 x i8] c"s2i_skey_id\00", align 1

; Function Attrs: nounwind uwtable
define ptr @s2i_ASN1_OCTET_STRING(ptr noundef %0, ptr noundef %1, ptr noundef %2) #1 {
  %4 = alloca ptr, align 8
  %5 = alloca ptr, align 8
  %6 = alloca ptr, align 8
  %7 = alloca ptr, align 8
  %8 = alloca ptr, align 8
  %9 = alloca i64, align 8
  %10 = alloca i32, align 4
  store ptr %0, ptr %5, align 8, !tbaa !3
  store ptr %1, ptr %6, align 8, !tbaa !16
  store ptr %2, ptr %7, align 8, !tbaa !18
  call void @llvm.lifetime.start.p0(i64 8, ptr %8) #5
  call void @llvm.lifetime.start.p0(i64 8, ptr %9) #5
  %11 = call ptr @ASN1_OCTET_STRING_new()
  store ptr %11, ptr %8, align 8, !tbaa !8
  %12 = icmp eq ptr %11, null
  br i1 %12, label %13, label %14

13:                                               ; preds = %3
  call void @ERR_new()
  call void @ERR_set_debug(ptr noundef @.str, i32 noundef 40, ptr noundef @__func__.s2i_ASN1_OCTET_STRING)
  call void (i32, i32, ptr, ...) @ERR_set_error(i32 noundef 34, i32 noundef 524301, ptr noundef null)
  store ptr null, ptr %4, align 8
  store i32 1, ptr %10, align 4
  br label %28

14:                                               ; preds = %3
  %15 = load ptr, ptr %7, align 8, !tbaa !18
  %16 = call ptr @OPENSSL_hexstr2buf(ptr noundef %15, ptr noundef %9)
  %17 = load ptr, ptr %8, align 8, !tbaa !8
  %18 = getelementptr inbounds nuw %struct.asn1_string_st, ptr %17, i32 0, i32 2
  store ptr %16, ptr %18, align 8, !tbaa !10
  %19 = icmp eq ptr %16, null
  br i1 %19, label %20, label %22

20:                                               ; preds = %14
  %21 = load ptr, ptr %8, align 8, !tbaa !8
  call void @ASN1_OCTET_STRING_free(ptr noundef %21)
  store ptr null, ptr %4, align 8
  store i32 1, ptr %10, align 4
  br label %28

22:                                               ; preds = %14
  %23 = load i64, ptr %9, align 8, !tbaa !56
  %24 = trunc i64 %23 to i32
  %25 = load ptr, ptr %8, align 8, !tbaa !8
  %26 = getelementptr inbounds nuw %struct.asn1_string_st, ptr %25, i32 0, i32 0
  store i32 %24, ptr %26, align 8, !tbaa !15
  %27 = load ptr, ptr %8, align 8, !tbaa !8
  store ptr %27, ptr %4, align 8
  store i32 1, ptr %10, align 4
  br label %28

28:                                               ; preds = %22, %20, %13
  call void @llvm.lifetime.end.p0(i64 8, ptr %9) #5
  call void @llvm.lifetime.end.p0(i64 8, ptr %8) #5
  %29 = load ptr, ptr %4, align 8
  ret ptr %29
}

; Function Attrs: nounwind uwtable
define internal ptr @s2i_skey_id(ptr noundef %0, ptr noundef %1, ptr noundef %2) #1 {
  %4 = alloca ptr, align 8
  %5 = alloca ptr, align 8
  %6 = alloca ptr, align 8
  %7 = alloca ptr, align 8
  store ptr %0, ptr %5, align 8, !tbaa !3
  store ptr %1, ptr %6, align 8, !tbaa !16
  store ptr %2, ptr %7, align 8, !tbaa !18
  %8 = load ptr, ptr %7, align 8, !tbaa !18
  %9 = call i32 @strcmp(ptr noundef %8, ptr noundef @.str.2) #4
  %10 = icmp eq i32 %9, 0
  br i1 %10, label %11, label %13

11:                                               ; preds = %3
  %12 = call ptr @ASN1_OCTET_STRING_new()
  store ptr %12, ptr %4, align 8
  br label %69

13:                                               ; preds = %3
  %14 = load ptr, ptr %7, align 8, !tbaa !18
  %15 = call i32 @strcmp(ptr noundef %14, ptr noundef @.str.3) #4
  %16 = icmp ne i32 %15, 0
  br i1 %16, label %17, label %22

17:                                               ; preds = %13
  %18 = load ptr, ptr %5, align 8, !tbaa !3
  %19 = load ptr, ptr %6, align 8, !tbaa !16
  %20 = load ptr, ptr %7, align 8, !tbaa !18
  %21 = call ptr @s2i_ASN1_OCTET_STRING(ptr noundef %18, ptr noundef %19, ptr noundef %20)
  store ptr %21, ptr %4, align 8
  br label %69

22:                                               ; preds = %13
  %23 = load ptr, ptr %6, align 8, !tbaa !16
  %24 = icmp ne ptr %23, null
  br i1 %24, label %25, label %33

25:                                               ; preds = %22
  %26 = load ptr, ptr %6, align 8, !tbaa !16
  %27 = getelementptr inbounds nuw %struct.v3_ext_ctx, ptr %26, i32 0, i32 0
  %28 = load i32, ptr %27, align 8, !tbaa !19
  %29 = and i32 %28, 1
  %30 = icmp ne i32 %29, 0
  br i1 %30, label %31, label %33

31:                                               ; preds = %25
  %32 = call ptr @ASN1_OCTET_STRING_new()
  store ptr %32, ptr %4, align 8
  br label %69

33:                                               ; preds = %25, %22
  %34 = load ptr, ptr %6, align 8, !tbaa !16
  %35 = icmp eq ptr %34, null
  br i1 %35, label %46, label %36

36:                                               ; preds = %33
  %37 = load ptr, ptr %6, align 8, !tbaa !16
  %38 = getelementptr inbounds nuw %struct.v3_ext_ctx, ptr %37, i32 0, i32 2
  %39 = load ptr, ptr %38, align 8, !tbaa !26
  %40 = icmp eq ptr %39, null
  br i1 %40, label %41, label %47

41:                                               ; preds = %36
  %42 = load ptr, ptr %6, align 8, !tbaa !16
  %43 = getelementptr inbounds nuw %struct.v3_ext_ctx, ptr %42, i32 0, i32 3
  %44 = load ptr, ptr %43, align 8, !tbaa !27
  %45 = icmp eq ptr %44, null
  br i1 %45, label %46, label %47

46:                                               ; preds = %41, %33
  call void @ERR_new()
  call void @ERR_set_debug(ptr noundef @.str, i32 noundef 104, ptr noundef @__func__.s2i_skey_id)
  call void (i32, i32, ptr, ...) @ERR_set_error(i32 noundef 34, i32 noundef 125, ptr noundef null)
  store ptr null, ptr %4, align 8
  br label %69

47:                                               ; preds = %41, %36
  %48 = load ptr, ptr %6, align 8, !tbaa !16
  %49 = getelementptr inbounds nuw %struct.v3_ext_ctx, ptr %48, i32 0, i32 2
  %50 = load ptr, ptr %49, align 8, !tbaa !26
  %51 = icmp ne ptr %50, null
  br i1 %51, label %52, label %59

52:                                               ; preds = %47
  %53 = load ptr, ptr %6, align 8, !tbaa !16
  %54 = getelementptr inbounds nuw %struct.v3_ext_ctx, ptr %53, i32 0, i32 2
  %55 = load ptr, ptr %54, align 8, !tbaa !26
  %56 = getelementptr inbounds nuw %struct.x509_st, ptr %55, i32 0, i32 0
  %57 = getelementptr inbounds nuw %struct.x509_cinf_st, ptr %56, i32 0, i32 6
  %58 = load ptr, ptr %57, align 8, !tbaa !28
  br label %66

59:                                               ; preds = %47
  %60 = load ptr, ptr %6, align 8, !tbaa !16
  %61 = getelementptr inbounds nuw %struct.v3_ext_ctx, ptr %60, i32 0, i32 3
  %62 = load ptr, ptr %61, align 8, !tbaa !27
  %63 = getelementptr inbounds nuw %struct.X509_req_st, ptr %62, i32 0, i32 0
  %64 = getelementptr inbounds nuw %struct.X509_req_info_st, ptr %63, i32 0, i32 3
  %65 = load ptr, ptr %64, align 8, !tbaa !52
  br label %66

66:                                               ; preds = %59, %52
  %67 = phi ptr [ %58, %52 ], [ %65, %59 ]
  %68 = call ptr @ossl_x509_pubkey_hash(ptr noundef %67)
  store ptr %68, ptr %4, align 8
  br label %69

69:                                               ; preds = %66, %46, %31, %17, %11
  %70 = load ptr, ptr %4, align 8
  ret ptr %70
}