; Function Attrs: nounwind uwtable
define internal ptr @s2i_skey_id(ptr readnone captures(none) %0, ptr noundef readonly captures(address_is_null) %1, ptr noundef %2) #1 {
  %4 = alloca i64, align 8
  %5 = tail call i32 @strcmp(ptr noundef nonnull dereferenceable(1) %2, ptr noundef nonnull dereferenceable(5) @.str.2) #5
  %6 = icmp eq i32 %5, 0
  br i1 %6, label %7, label %9

7:                                                ; preds = %3
  %8 = tail call ptr @ASN1_OCTET_STRING_new() #4
  br label %45

9:                                                ; preds = %3
  %10 = tail call i32 @strcmp(ptr noundef nonnull dereferenceable(1) %2, ptr noundef nonnull dereferenceable(5) @.str.3) #5
  %.not = icmp eq i32 %10, 0
  br i1 %.not, label %23, label %11

11:                                               ; preds = %9
  call void @llvm.lifetime.start.p0(i64 8, ptr nonnull %4) #4
  %12 = tail call ptr @ASN1_OCTET_STRING_new() #4
  %13 = icmp eq ptr %12, null
  br i1 %13, label %14, label %15

14:                                               ; preds = %11
  tail call void @ERR_new() #4
  tail call void @ERR_set_debug(ptr noundef nonnull @.str, i32 noundef 40, ptr noundef nonnull @__func__.s2i_ASN1_OCTET_STRING) #4
  tail call void (i32, i32, ptr, ...) @ERR_set_error(i32 noundef 34, i32 noundef 524301, ptr noundef null) #4
  br label %s2i_ASN1_OCTET_STRING.exit

15:                                               ; preds = %11
  %16 = call ptr @OPENSSL_hexstr2buf(ptr noundef nonnull %2, ptr noundef nonnull %4) #4
  %17 = getelementptr inbounds nuw i8, ptr %12, i64 8
  store ptr %16, ptr %17, align 8, !tbaa !3
  %18 = icmp eq ptr %16, null
  br i1 %18, label %19, label %20

19:                                               ; preds = %15
  call void @ASN1_OCTET_STRING_free(ptr noundef nonnull %12) #4
  br label %s2i_ASN1_OCTET_STRING.exit

20:                                               ; preds = %15
  %21 = load i64, ptr %4, align 8, !tbaa !12
  %22 = trunc i64 %21 to i32
  store i32 %22, ptr %12, align 8, !tbaa !11
  br label %s2i_ASN1_OCTET_STRING.exit

s2i_ASN1_OCTET_STRING.exit:                       ; preds = %14, %19, %20
  %.0.i = phi ptr [ null, %14 ], [ null, %19 ], [ %12, %20 ]
  call void @llvm.lifetime.end.p0(i64 8, ptr nonnull %4) #4
  br label %45

23:                                               ; preds = %9
  %cond = icmp eq ptr %1, null
  br i1 %cond, label %37, label %24

24:                                               ; preds = %23
  %25 = load i32, ptr %1, align 8, !tbaa !13
  %26 = and i32 %25, 1
  %.not17 = icmp eq i32 %26, 0
  br i1 %.not17, label %29, label %27

27:                                               ; preds = %24
  %28 = tail call ptr @ASN1_OCTET_STRING_new() #4
  br label %45

29:                                               ; preds = %24
  %30 = getelementptr inbounds nuw i8, ptr %1, i64 16
  %31 = load ptr, ptr %30, align 8, !tbaa !20
  %32 = icmp eq ptr %31, null
  br i1 %32, label %33, label %38

33:                                               ; preds = %29
  %34 = getelementptr inbounds nuw i8, ptr %1, i64 24
  %35 = load ptr, ptr %34, align 8, !tbaa !21
  %36 = icmp eq ptr %35, null
  br i1 %36, label %37, label %40

37:                                               ; preds = %23, %33
  tail call void @ERR_new() #4
  tail call void @ERR_set_debug(ptr noundef nonnull @.str, i32 noundef 104, ptr noundef nonnull @__func__.s2i_skey_id) #4
  tail call void (i32, i32, ptr, ...) @ERR_set_error(i32 noundef 34, i32 noundef 125, ptr noundef null) #4
  br label %45

38:                                               ; preds = %29
  %39 = getelementptr inbounds nuw i8, ptr %31, i64 80
  br label %42

40:                                               ; preds = %33
  %41 = getelementptr inbounds nuw i8, ptr %35, i64 40
  br label %42

42:                                               ; preds = %40, %38
  %.in = phi ptr [ %39, %38 ], [ %41, %40 ]
  %43 = load ptr, ptr %.in, align 8, !tbaa !22
  %44 = tail call ptr @ossl_x509_pubkey_hash(ptr noundef %43)
  br label %45

45:                                               ; preds = %42, %37, %27, %s2i_ASN1_OCTET_STRING.exit, %7
  %.0 = phi ptr [ %8, %7 ], [ %.0.i, %s2i_ASN1_OCTET_STRING.exit ], [ %28, %27 ], [ null, %37 ], [ %44, %42 ]
  ret ptr %.0
}